; Function Attrs: nofree norecurse nosync nounwind memory(readwrite, inaccessiblemem: none) uwtable
define internal void @exchange_int64s(ptr nocapture noundef %0, ptr nocapture noundef %1, i64 noundef %2) unnamed_addr #0 {
  %.not10 = icmp ult i64 %2, 8
  br i1 %.not10, label %._crit_edge, label %.lr.ph.preheader

.lr.ph.preheader:                                 ; preds = %3
  %4 = lshr i64 %2, 3
  br label %.lr.ph

.lr.ph:                                           ; preds = %.lr.ph.preheader, %.lr.ph
  %.013 = phi i64 [ %5, %.lr.ph ], [ %4, %.lr.ph.preheader ]
  %.0812 = phi ptr [ %9, %.lr.ph ], [ %1, %.lr.ph.preheader ]
  %.0911 = phi ptr [ %8, %.lr.ph ], [ %0, %.lr.ph.preheader ]
  %5 = add nsw i64 %.013, -1
  %6 = load i64, ptr %.0911, align 8
  %7 = load i64, ptr %.0812, align 8
  %8 = getelementptr i8, ptr %.0911, i64 8
  store i64 %7, ptr %.0911, align 8
  %9 = getelementptr i8, ptr %.0812, i64 8
  store i64 %6, ptr %.0812, align 8
  %.not = icmp eq i64 %5, 0
  br i1 %.not, label %._crit_edge, label %.lr.ph, !llvm.loop !21

._crit_edge:                                      ; preds = %.lr.ph, %3
  ret void
}